; Function Attrs: mustprogress nofree norecurse nosync nounwind willreturn memory(read, inaccessiblemem: none) uwtable
define noundef zeroext i1 @_ZN7rocksdb16CompactionPicker20AreFilesInCompactionERKSt6vectorIPNS_12FileMetaDataESaIS3_EE(ptr noundef nonnull readnone align 8 captures(none) dereferenceable(128) %0, ptr noundef nonnull readonly align 8 captures(none) dereferenceable(24) %1) local_unnamed_addr #5 align 2 {
  %3 = getelementptr inbounds nuw i8, ptr %1, i64 8
  %4 = load ptr, ptr %3, align 8, !tbaa !18
  %5 = load ptr, ptr %1, align 8, !tbaa !22
  %.not8.not = icmp eq ptr %4, %5
  br i1 %.not8.not, label %._crit_edge, label %.lr.ph.preheader

.lr.ph.preheader:                                 ; preds = %2
  %6 = ptrtoint ptr %4 to i64
  %7 = ptrtoint ptr %5 to i64
  %8 = sub i64 %6, %7
  %9 = ashr exact i64 %8, 3
  %umax = tail call i64 @llvm.umax.i64(i64 %9, i64 1)
  br label %.lr.ph

.lr.ph:                                           ; preds = %.lr.ph, %.lr.ph.preheader
  %.069 = phi i64 [ 0, %.lr.ph.preheader ], [ %15, %.lr.ph ]
  %10 = getelementptr inbounds nuw ptr, ptr %5, i64 %.069
  %11 = load ptr, ptr %10, align 8, !tbaa !23
  %12 = getelementptr inbounds nuw i8, ptr %11, i64 180
  %13 = load i8, ptr %12, align 4, !tbaa !25, !range !38, !noundef !39
  %14 = trunc nuw i8 %13 to i1
  %15 = add nuw i64 %.069, 1
  %exitcond.not = icmp eq i64 %15, %umax
  %or.cond = select i1 %14, i1 true, i1 %exitcond.not
  br i1 %or.cond, label %._crit_edge, label %.lr.ph, !llvm.loop !355

._crit_edge:                                      ; preds = %.lr.ph, %2
  %.not.lcssa = phi i1 [ false, %2 ], [ %14, %.lr.ph ]
  ret i1 %.not.lcssa
}